; ModuleID = '24/1384.c'
source_filename = "24/1384.c"
target datalayout = "e-m:e-p270:32:32-p271:32:32-p272:64:64-i64:64-f80:128-n8:16:32:64-S128"
target triple = "x86_64-pc-linux-gnu"

; Function Attrs: noinline nounwind uwtable
define dso_local i32 @main() #0 {
  %1 = alloca i32, align 4
  %2 = alloca [5000 x i8], align 16
  %3 = alloca [50 x [100 x i8]], align 16
  %4 = alloca i32, align 4
  %5 = alloca i32, align 4
  %6 = alloca i32, align 4
  %7 = alloca i32, align 4
  %8 = alloca i32, align 4
  %9 = alloca i32, align 4
  store i32 0, i32* %1, align 4
  %10 = getelementptr inbounds [5000 x i8], [5000 x i8]* %2, i64 0, i64 0
  %11 = call i32 (i8*, ...) bitcast (i32 (...)* @gets to i32 (i8*, ...)*)(i8* %10)
  store i32 0, i32* %5, align 4
  store i32 0, i32* %6, align 4
  %12 = getelementptr inbounds [5000 x i8], [5000 x i8]* %2, i64 0, i64 0
  %13 = call i64 @strlen(i8* %12) #3
  %14 = trunc i64 %13 to i32
  store i32 %14, i32* %7, align 4
  store i32 0, i32* %4, align 4
  br label %15

15:                                               ; preds = %49, %0
  %16 = load i32, i32* %4, align 4
  %17 = load i32, i32* %7, align 4
  %18 = icmp slt i32 %16, %17
  br i1 %18, label %19, label %52

19:                                               ; preds = %15
  %20 = load i32, i32* %4, align 4
  %21 = sext i32 %20 to i64
  %22 = getelementptr inbounds [5000 x i8], [5000 x i8]* %2, i64 0, i64 %21
  %23 = load i8, i8* %22, align 1
  %24 = sext i8 %23 to i32
  %25 = icmp ne i32 %24, 32
  br i1 %25, label %26, label %39

26:                                               ; preds = %19
  %27 = load i32, i32* %4, align 4
  %28 = sext i32 %27 to i64
  %29 = getelementptr inbounds [5000 x i8], [5000 x i8]* %2, i64 0, i64 %28
  %30 = load i8, i8* %29, align 1
  %31 = load i32, i32* %6, align 4
  %32 = sext i32 %31 to i64
  %33 = getelementptr inbounds [50 x [100 x i8]], [50 x [100 x i8]]* %3, i64 0, i64 %32
  %34 = load i32, i32* %5, align 4
  %35 = sext i32 %34 to i64
  %36 = getelementptr inbounds [100 x i8], [100 x i8]* %33, i64 0, i64 %35
  store i8 %30, i8* %36, align 1
  %37 = load i32, i32* %5, align 4
  %38 = add nsw i32 %37, 1
  store i32 %38, i32* %5, align 4
  br label %48

39:                                               ; preds = %19
  %40 = load i32, i32* %6, align 4
  %41 = sext i32 %40 to i64
  %42 = getelementptr inbounds [50 x [100 x i8]], [50 x [100 x i8]]* %3, i64 0, i64 %41
  %43 = load i32, i32* %5, align 4
  %44 = sext i32 %43 to i64
  %45 = getelementptr inbounds [100 x i8], [100 x i8]* %42, i64 0, i64 %44
  store i8 0, i8* %45, align 1
  %46 = load i32, i32* %6, align 4
  %47 = add nsw i32 %46, 1
  store i32 %47, i32* %6, align 4
  store i32 0, i32* %5, align 4
  br label %48

48:                                               ; preds = %39, %26
  br label %49

49:                                               ; preds = %48
  %50 = load i32, i32* %4, align 4
  %51 = add nsw i32 %50, 1
  store i32 %51, i32* %4, align 4
  br label %15

52:                                               ; preds = %15
  %53 = load i32, i32* %6, align 4
  %54 = sext i32 %53 to i64
  %55 = getelementptr inbounds [50 x [100 x i8]], [50 x [100 x i8]]* %3, i64 0, i64 %54
  %56 = load i32, i32* %5, align 4
  %57 = sext i32 %56 to i64
  %58 = getelementptr inbounds [100 x i8], [100 x i8]* %55, i64 0, i64 %57
  store i8 0, i8* %58, align 1
  store i32 0, i32* %8, align 4
  store i32 0, i32* %9, align 4
  store i32 0, i32* %4, align 4
  br label %59

59:                                               ; preds = %93, %52
  %60 = load i32, i32* %4, align 4
  %61 = load i32, i32* %6, align 4
  %62 = add nsw i32 %61, 1
  %63 = icmp slt i32 %60, %62
  br i1 %63, label %64, label %96

64:                                               ; preds = %59
  %65 = load i32, i32* %4, align 4
  %66 = sext i32 %65 to i64
  %67 = getelementptr inbounds [50 x [100 x i8]], [50 x [100 x i8]]* %3, i64 0, i64 %66
  %68 = getelementptr inbounds [100 x i8], [100 x i8]* %67, i64 0, i64 0
  %69 = call i64 @strlen(i8* %68) #3
  %70 = load i32, i32* %9, align 4
  %71 = sext i32 %70 to i64
  %72 = getelementptr inbounds [50 x [100 x i8]], [50 x [100 x i8]]* %3, i64 0, i64 %71
  %73 = getelementptr inbounds [100 x i8], [100 x i8]* %72, i64 0, i64 0
  %74 = call i64 @strlen(i8* %73) #3
  %75 = icmp ult i64 %69, %74
  br i1 %75, label %76, label %78

76:                                               ; preds = %64
  %77 = load i32, i32* %4, align 4
  store i32 %77, i32* %9, align 4
  br label %78

78:                                               ; preds = %76, %64
  %79 = load i32, i32* %4, align 4
  %80 = sext i32 %79 to i64
  %81 = getelementptr inbounds [50 x [100 x i8]], [50 x [100 x i8]]* %3, i64 0, i64 %80
  %82 = getelementptr inbounds [100 x i8], [100 x i8]* %81, i64 0, i64 0
  %83 = call i64 @strlen(i8* %82) #3
  %84 = load i32, i32* %8, align 4
  %85 = sext i32 %84 to i64
  %86 = getelementptr inbounds [50 x [100 x i8]], [50 x [100 x i8]]* %3, i64 0, i64 %85
  %87 = getelementptr inbounds [100 x i8], [100 x i8]* %86, i64 0, i64 0
  %88 = call i64 @strlen(i8* %87) #3
  %89 = icmp ugt i64 %83, %88
  br i1 %89, label %90, label %92

90:                                               ; preds = %78
  %91 = load i32, i32* %4, align 4
  store i32 %91, i32* %8, align 4
  br label %92

92:                                               ; preds = %90, %78
  br label %93

93:                                               ; preds = %92
  %94 = load i32, i32* %4, align 4
  %95 = add nsw i32 %94, 1
  store i32 %95, i32* %4, align 4
  br label %59

96:                                               ; preds = %59
  %97 = load i32, i32* %8, align 4
  %98 = sext i32 %97 to i64
  %99 = getelementptr inbounds [50 x [100 x i8]], [50 x [100 x i8]]* %3, i64 0, i64 %98
  %100 = getelementptr inbounds [100 x i8], [100 x i8]* %99, i64 0, i64 0
  %101 = call i32 @puts(i8* %100)
  %102 = load i32, i32* %9, align 4
  %103 = sext i32 %102 to i64
  %104 = getelementptr inbounds [50 x [100 x i8]], [50 x [100 x i8]]* %3, i64 0, i64 %103
  %105 = getelementptr inbounds [100 x i8], [100 x i8]* %104, i64 0, i64 0
  %106 = call i32 @puts(i8* %105)
  ret i32 0
}

declare dso_local i32 @gets(...) #1

; Function Attrs: nounwind readonly
declare dso_local i64 @strlen(i8*) #2

declare dso_local i32 @puts(i8*) #1


!llvm.module.flags = !{!0}
!llvm.ident = !{!1}

!0 = !{i32 1, !"wchar_size", i32 4}
!1 = !{!"clang version 10.0.0-4ubuntu1 "}
