; ModuleID = 'source-C-CXX/23/1384.c'
source_filename = "source-C-CXX/23/1384.c"
target datalayout = "e-m:e-p270:32:32-p271:32:32-p272:64:64-i64:64-f80:128-n8:16:32:64-S128"
target triple = "x86_64-pc-linux-gnu"

; Function Attrs: nounwind sspstrong uwtable
define dso_local i32 @main() local_unnamed_addr #0 {
  %1 = alloca [5000 x i8], align 16
  %2 = alloca [50 x [100 x i8]], align 16
  %3 = getelementptr inbounds [5000 x i8], [5000 x i8]* %1, i64 0, i64 0
  call void @llvm.lifetime.start.p0i8(i64 5000, i8* nonnull %3) #5
  %4 = call i32 (i8*, ...) bitcast (i32 (...)* @gets to i32 (i8*, ...)*)(i8* nonnull %3) #5
  %5 = getelementptr inbounds [50 x [100 x i8]], [50 x [100 x i8]]* %2, i64 0, i64 0, i64 0
  call void @llvm.lifetime.start.p0i8(i64 5000, i8* nonnull %5) #5
  %6 = call i64 @strlen(i8* noundef nonnull %3) #6
  %7 = trunc i64 %6 to i32
  %8 = icmp sgt i32 %7, 0
  br i1 %8, label %11, label %9

9:                                                ; preds = %0
  %10 = getelementptr inbounds [50 x [100 x i8]], [50 x [100 x i8]]* %2, i64 0, i64 0, i64 0
  store i8 0, i8* %10, align 16, !tbaa !5
  br label %37

11:                                               ; preds = %0
  %12 = and i64 %6, 4294967295
  br label %13

13:                                               ; preds = %11, %27
  %14 = phi i64 [ 0, %11 ], [ %30, %27 ]
  %15 = phi i32 [ 0, %11 ], [ %29, %27 ]
  %16 = phi i32 [ 0, %11 ], [ %28, %27 ]
  %17 = getelementptr inbounds [5000 x i8], [5000 x i8]* %1, i64 0, i64 %14
  %18 = load i8, i8* %17, align 1, !tbaa !5
  %19 = icmp eq i8 %18, 32
  %20 = sext i32 %15 to i64
  %21 = sext i32 %16 to i64
  %22 = getelementptr inbounds [50 x [100 x i8]], [50 x [100 x i8]]* %2, i64 0, i64 %20, i64 %21
  br i1 %19, label %25, label %23

23:                                               ; preds = %13
  store i8 %18, i8* %22, align 1, !tbaa !5
  %24 = add nsw i32 %16, 1
  br label %27

25:                                               ; preds = %13
  store i8 0, i8* %22, align 1, !tbaa !5
  %26 = add nsw i32 %15, 1
  br label %27

27:                                               ; preds = %23, %25
  %28 = phi i32 [ %24, %23 ], [ 0, %25 ]
  %29 = phi i32 [ %15, %23 ], [ %26, %25 ]
  %30 = add nuw nsw i64 %14, 1
  %31 = icmp eq i64 %30, %12
  br i1 %31, label %32, label %13, !llvm.loop !8

32:                                               ; preds = %27
  %33 = sext i32 %29 to i64
  %34 = sext i32 %28 to i64
  %35 = getelementptr inbounds [50 x [100 x i8]], [50 x [100 x i8]]* %2, i64 0, i64 %33, i64 %34
  store i8 0, i8* %35, align 1, !tbaa !5
  %36 = icmp slt i32 %29, 0
  br i1 %36, label %63, label %37

37:                                               ; preds = %9, %32
  %38 = phi i32 [ 0, %9 ], [ %29, %32 ]
  %39 = add nuw i32 %38, 1
  %40 = zext i32 %39 to i64
  br label %41

41:                                               ; preds = %37, %41
  %42 = phi i64 [ 0, %37 ], [ %58, %41 ]
  %43 = phi i32 [ 0, %37 ], [ %52, %41 ]
  %44 = phi i32 [ 0, %37 ], [ %57, %41 ]
  %45 = getelementptr inbounds [50 x [100 x i8]], [50 x [100 x i8]]* %2, i64 0, i64 %42, i64 0
  %46 = call i64 @strlen(i8* noundef nonnull %45) #6
  %47 = sext i32 %43 to i64
  %48 = getelementptr inbounds [50 x [100 x i8]], [50 x [100 x i8]]* %2, i64 0, i64 %47, i64 0
  %49 = call i64 @strlen(i8* noundef nonnull %48) #6
  %50 = icmp ult i64 %46, %49
  %51 = trunc i64 %42 to i32
  %52 = select i1 %50, i32 %51, i32 %43
  %53 = sext i32 %44 to i64
  %54 = getelementptr inbounds [50 x [100 x i8]], [50 x [100 x i8]]* %2, i64 0, i64 %53, i64 0
  %55 = call i64 @strlen(i8* noundef nonnull %54) #6
  %56 = icmp ugt i64 %46, %55
  %57 = select i1 %56, i32 %51, i32 %44
  %58 = add nuw nsw i64 %42, 1
  %59 = icmp eq i64 %58, %40
  br i1 %59, label %60, label %41, !llvm.loop !10

60:                                               ; preds = %41
  %61 = sext i32 %57 to i64
  %62 = sext i32 %52 to i64
  br label %63

63:                                               ; preds = %60, %32
  %64 = phi i64 [ 0, %32 ], [ %61, %60 ]
  %65 = phi i64 [ 0, %32 ], [ %62, %60 ]
  %66 = getelementptr inbounds [50 x [100 x i8]], [50 x [100 x i8]]* %2, i64 0, i64 %64, i64 0
  %67 = call i32 @puts(i8* nonnull %66)
  %68 = getelementptr inbounds [50 x [100 x i8]], [50 x [100 x i8]]* %2, i64 0, i64 %65, i64 0
  %69 = call i32 @puts(i8* nonnull %68)
  call void @llvm.lifetime.end.p0i8(i64 5000, i8* nonnull %5) #5
  call void @llvm.lifetime.end.p0i8(i64 5000, i8* nonnull %3) #5
  ret i32 0
}

; Function Attrs: argmemonly mustprogress nofree nosync nounwind willreturn
declare void @llvm.lifetime.start.p0i8(i64 immarg, i8* nocapture) #1

declare i32 @gets(...) local_unnamed_addr #2

; Function Attrs: argmemonly mustprogress nofree nounwind readonly willreturn
declare i64 @strlen(i8* nocapture) local_unnamed_addr #3

; Function Attrs: nofree nounwind
declare noundef i32 @puts(i8* nocapture noundef readonly) local_unnamed_addr #4

; Function Attrs: argmemonly mustprogress nofree nosync nounwind willreturn
declare void @llvm.lifetime.end.p0i8(i64 immarg, i8* nocapture) #1


!llvm.module.flags = !{!0, !1, !2, !3}
!llvm.ident = !{!4}

!0 = !{i32 1, !"wchar_size", i32 4}
!1 = !{i32 7, !"PIC Level", i32 2}
!2 = !{i32 7, !"PIE Level", i32 2}
!3 = !{i32 7, !"uwtable", i32 1}
!4 = !{!"clang version 13.0.0"}
!5 = !{!6, !6, i64 0}
!6 = !{!"omnipotent char", !7, i64 0}
!7 = !{!"Simple C/C++ TBAA"}
!8 = distinct !{!8, !9}
!9 = !{!"llvm.loop.mustprogress"}
!10 = distinct !{!10, !9}
